(dp0
Vobserve
p1
(lp2
(dp3
S'index'
p4
V1
p5
sS'FN/PB'
p6
(VStatement
p7
Vobserve.02
p8
tp9
sS'sentence'
p10
VObserving that the judge `` has never exhibited any bias or prejudice , '' Mr. Murray concluded that he `` would be impartial in any case involving a homosexual or prostitute '' as a victim .
p11
sS'path'
p12
Vwsj/00/wsj_0049.txt
p13
sS'line'
p14
I63
sS'parsed'
p15
(lp16
(Vobserve
p17
S'TARGET'
p18
tp19
a(Vexhibit
p20
Vccomp
p21
tp22
a(Vconclude
p23
Vdep
p24
tp25
asS'verbnet'
p26
V37.7-1
p27
sa(dp28
g4
V14
p29
sg6
(VStatement
p30
Vobserve.02
p31
tp32
sg10
VIn the torrent of replies that followed , one woman ringer from Solihull observed that `` the average male ringer leaves quite a lot to be desired : badly dressed , decorated with acne and a large beer - belly , frequently unwashed and unbearably flatulent in peals . ''
p33
sg12
Vwsj/00/wsj_0089.txt
p34
sg14
I62
sg15
(lp35
(V''
p36
Vroot
p37
tp38
a(Vtorrent
p39
Vprep_in
p40
tp41
a(Vringer
p42
Vnsubj
p43
tp44
a(Vobserve
p45
g18
tp46
a(Vleave
p47
Vccomp
p48
tp49
asg26
V37.7-1
p50
sa(dp51
g4
V2
p52
sg6
(VStatement
p53
Vobserve.02
p54
tp55
sg10
VMr. Oxnard observed that the situation in Brazil is also very complicated .
p56
sg12
Vwsj/01/wsj_0155.txt
p57
sg14
I24
sg15
(lp58
(V.
p59
Vroot
p60
tp61
a(VMr.
p62
Vnn
p63
tp64
a(VOxnard
p65
Vnsubj
p66
tp67
a(Vobserve
p68
g18
tp69
a(Vcomplicate
p70
Vccomp
p71
tp72
asg26
V37.7-1
p73
sa(dp74
g4
V12
p75
sg6
(VStatement
p76
Vobserve.02
p77
tp78
sg10
VFord is `` in the driving seat at the moment , '' observed Bob Barber , an auto analyst at brokers James Capel & Co .
p79
sg12
Vwsj/02/wsj_0224.txt
p80
sg14
I19
sg15
(lp81
(Vbe
p82
Vdep
p83
tp84
a(Vobserve
p85
g18
tp86
a(VBarber
p87
Vdobj
p88
tp89
asg26
V37.7-1
p90
sa(dp91
g4
V21
p92
sg6
(VStatement
p93
Vobserve.02
p94
tp95
sg10
V`` It 's now a very good time politically to get this over and done with , '' observed Daniel Jones , professor of motor industry management at the University of Cardiff in Wales .
p96
sg12
Vwsj/02/wsj_0224.txt
p97
sg14
I42
sg15
(lp98
(V.
p99
Vroot
p100
tp101
a(Vpolitically
p102
Vccomp
p103
tp104
a(Vdo
p105
Vccomp
p106
tp107
a(VDaniel
p108
Vnn
p109
tp110
a(VJones
p111
Vnsubj
p112
tp113
a(g111
g18
tp114
a(Vprofessor
p115
Vappos
p116
tp117
asg26
V37.7-1
p118
sa(dp119
g4
g5
sg6
(VBecoming_aware
p120
Vobserve.01
p121
tp122
sg10
VWe observed at least two large plastic bags of shredded paper loaded into this truck . ''
p123
sg12
Vwsj/03/wsj_0335.txt
p124
sg14
I30
sg15
(lp125
(V''
p126
Vroot
p127
tp128
a(Vwe
p129
Vnsubj
p130
tp131
a(Vobserve
p132
g18
tp133
a(Vbag
p134
Vdobj
p135
tp136
asg26
V30.2
p137
sa(dp138
g4
V52
p139
sg6
(VPerception_active
p140
Vobserve.01
p141
tp142
sg10
VDespite that , when the Johns Hopkins scientists compared the gene they had found in the human cancer cells with the Mr. Levine 's p53 gene they found the two were identical ; it turned out that in Mr. Levine 's cancer studies , he had unknowingly been observing a damaged form of p53 -- a cancer - suppressing gene .
p143
sg12
Vwsj/04/wsj_0465.txt
p144
sg14
I76
sg15
(lp145
(Va
p146
Vdet
p147
tp148
a(Vdamaged
p149
Vamod
p150
tp151
a(Vform
p152
g18
tp153
a(Vp53
p154
Vprep_of
p155
tp156
a(Vcancer
p157
Vdep
p158
tp159
a(Vsuppress
p160
Vnsubj
p161
tp162
asg26
V35.4
p163
sa(dp164
g4
g5
sg6
(VStatement
p165
Vobserve.02
p166
tp167
sg10
VThey observe that persistent Japanese investor demand for dollars for both portfolio and direct investment has kept a base of support for the dollar at around 140 yen .
p168
sg12
Vwsj/04/wsj_0488.txt
p169
sg14
I23
sg15
(lp170
(V.
p171
Vroot
p172
tp173
a(Vthey
p174
Vnsubj
p175
tp176
a(Vobserve
p177
g18
tp178
a(Vkeep
p179
Vccomp
p180
tp181
asg26
V29.5-2
p182
sa(dp183
g4
V3
p184
sg6
(VStatement
p185
Vobserve.02
p186
tp187
sg10
VBut , he observes , while makers suffer losses when program trading drags the market down , they also make money when program trading pushes the prices higher .
p188
sg12
Vwsj/05/wsj_0585.txt
p189
sg14
I29
sg15
(lp190
(Vhe
p191
Vnsubj
p192
tp193
a(Vobserve
p194
g18
tp195
a(Vmake
p196
Vparataxis
p197
tp198
asg26
V37.7-1
p199
sa(dp200
g4
V5
p201
sg6
(VBecoming_aware
p202
Vobserve.01
p203
tp204
sg10
VDisorderly market conditions could be observed quite frequently in foreign exchange markets in the 1960s and 1970s .
p205
sg12
Vwsj/07/wsj_0779.txt
p206
sg14
I41
sg15
(lp207
(V.
p208
Vroot
p209
tp210
a(Vcondition
p211
Vnsubjpass
p212
tp213
a(Vcould
p214
Vaux
p215
tp216
a(Vbe
p217
Vauxpass
p218
tp219
a(Vobserve
p220
g18
tp221
a(Vfrequently
p222
Vadvmod
p223
tp224
a(Vmarket
p225
Vprep_in
p226
tp227
asg26
V30.2
p228
sa(dp229
g4
V19
p230
sg6
(VStatement
p231
Vobserve.02
p232
tp233
sg10
V`` When someone says , ` I 've turned to God , ' everybody lays off , '' observes Frank Mankiewicz , an old Washington hand and former aide to Robert Kennedy .
p234
sg12
Vwsj/09/wsj_0909.txt
p235
sg14
I30
sg15
(lp236
(V.
p237
Vroot
p238
tp239
a(Vlay
p240
Vccomp
p241
tp242
a(Vobserve
p243
g18
tp244
a(VMankiewicz
p245
Vnsubj
p246
tp247
asg26
V37.7-1
p248
sa(dp249
g4
V7
p250
sg6
(VStatement
p251
Vobserve.02
p252
tp253
sg10
VSuppression of the book , Judge Oakes observed , would operate as a prior restraint and thus involve the First Amendment .
p254
sg12
Vwsj/09/wsj_0944.txt
p255
sg14
I26
sg15
(lp256
(VJudge
p257
Vnn
p258
tp259
a(VOakes
p260
Vnsubj
p261
tp262
a(Vobserve
p263
g18
tp264
a(Voperate
p265
Vparataxis
p266
tp267
asg26
V29.5-2
p268
sa(dp269
g4
V8
p270
sg6
(VStatement
p271
Vobserve.02
p272
tp273
sg10
VIn his eloquent dissent , Judge Alex Kozinski observed that when a writer uses quotation marks in reporting what someone has said , the reader assumes that these are the speaker 's precise words or at least his words purged of `` uh '' and `` you know '' and grammatical error .
p274
sg12
Vwsj/09/wsj_0944.txt
p275
sg14
I48
sg15
(lp276
(V.
p277
Vroot
p278
tp279
a(Vdissent
p280
Vprep_in
p281
tp282
a(VJudge
p283
Vnn
p284
tp285
a(VAlex
p286
Vnn
p287
tp288
a(VKozinski
p289
Vnsubj
p290
tp291
a(Vobserve
p292
g18
tp293
a(Vassume
p294
Vccomp
p295
tp296
asg26
V37.7-1
p297
sa(dp298
g4
V6
p299
sg6
(VStatement
p300
Vobserve.02
p301
tp302
sg10
VA serious economic downturn , pessimists observe , could hurt the expansionists .
p303
sg12
Vwsj/09/wsj_0994.txt
p304
sg14
I54
sg15
(lp305
(Vpessimist
p306
Vnsubj
p307
tp308
a(Vobserve
p309
g18
tp310
a(Vhurt
p311
Vparataxis
p312
tp313
asg26
V29.5-2
p314
sa(dp315
g4
V17
p316
sg6
(VStatement
p317
Vobserve.02
p318
tp319
sg10
V`` The market acted better , but it was n't a tremendous comeback , '' Mr. Zipper observed .
p320
sg12
Vwsj/10/wsj_1055.txt
p321
sg14
I12
sg15
(lp322
(V.
p323
Vroot
p324
tp325
a(Vact
p326
Vccomp
p327
tp328
a(Vcomeback
p329
Vccomp
p330
tp331
a(VMr.
p332
Vnn
p333
tp334
a(VZipper
p335
Vnsubj
p336
tp337
a(Vobserve
p338
g18
tp339
asg26
V37.7-1
p340
sa(dp341
g4
V16
p342
sg6
(VStatement
p343
Vobserve.02
p344
tp345
sg10
VKen Ruberg , head of the Republican Mainstream Committee , a group of party moderates , observes : `` The administration finds itself in an ideological cul de sac that it will find it difficult -- if not impossible -- to get itself out of .
p346
sg12
Vwsj/10/wsj_1094.txt
p347
sg14
I54
sg15
(lp348
(V.
p349
Vroot
p350
tp351
a(VRuberg
p352
Vnsubj
p353
tp354
a(Vobserve
p355
g18
tp356
a(Vfind
p357
Vccomp
p358
tp359
asg26
V37.7-1
p360
sa(dp361
g4
V16
p362
sg6
(VStatement
p363
Vobserve.02
p364
tp365
sg10
V`` The ( paper ) loss here is very small '' for these sub-underwriters , observed John Nelson , a Lazard managing director .
p366
sg12
Vwsj/12/wsj_1248.txt
p367
sg14
I12
sg15
(lp368
(V.
p369
Vroot
p370
tp371
a(Vsmall
p372
Vccomp
p373
tp374
a(Vobserve
p375
g18
tp376
a(VNelson
p377
Vnsubj
p378
tp379
asg26
V37.7-1
p380
sa(dp381
g4
V22
p382
sg6
(VStatement
p383
Vobserve.02
p384
tp385
sg10
VDarman now blames the clash on miscommunication , but House GOP leader Michel , who carried the offer to him , observes , `` I was speaking English at the time , and quite loud so I could be understood . ''
p386
sg12
Vwsj/16/wsj_1682.txt
p387
sg14
I13
sg15
(lp388
(Vblame
p389
Vconj_but
p390
tp391
a(VMichel
p392
Vnsubj
p393
tp394
a(Vobserve
p395
g18
tp396
a(Vspeak
p397
Vdep
p398
tp399
a(Vunderstand
p400
Vdep
p401
tp402
asg26
V37.7-1
p403
sa(dp404
g4
V18
p405
sg6
(VStatement
p406
Vobserve.02
p407
tp408
sg10
V`` They 've got a lot of different balls in the air at the same time , '' observes Jim Poyner , a computer securities analyst with Dallas - based William K. Woodruff & Co .
p409
sg12
Vwsj/17/wsj_1706.txt
p410
sg14
I8
sg15
(lp411
(V.
p412
Vroot
p413
tp414
a(Vget
p415
Vccomp
p416
tp417
a(Vobserve
p418
g18
tp419
a(VPoyner
p420
Vnsubj
p421
tp422
asg26
V37.7-1
p423
sa(dp424
g4
V23
p425
sg6
(VStatement
p426
Vobserve.02
p427
tp428
sg10
V`` It 's a very valuable weapon in their armory , '' which could enable Ford to bid sooner for Jaguar , observed Mr. Barber of James Capel .
p429
sg12
Vwsj/18/wsj_1860.txt
p430
sg14
I32
sg15
(lp431
(V.
p432
Vroot
p433
tp434
a(Vweapon
p435
Vccomp
p436
tp437
a(Vobserve
p438
g18
tp439
a(VBarber
p440
Vnsubj
p441
tp442
asg26
V37.7-1
p443
sa(dp444
g4
V10
p445
sg6
(VPerception_active
p446
Vobserve.01
p447
tp448
sg10
VBut traders on the exchange floor , who can observe the computer - guided trading activity on monitor screens , said most of the top program - trading firms were active both days .
p449
sg12
Vwsj/18/wsj_1863.txt
p450
sg14
I16
sg15
(lp451
(Vtrader
p452
Vnsubj
p453
tp454
a(g452
Vrcmod
p455
tp456
a(Vcan
p457
Vaux
p458
tp459
a(Vobserve
p460
g18
tp461
a(Vcomputer
p462
Vdobj
p463
tp464
asg26
V30.2
p465
sa(dp466
g4
V29
p467
sg6
(VBecoming_aware
p468
Vobserve.01
p469
tp470
sg10
VLuis Carlos , knowing that helping the Americans could advance the career of any Panamanian officer , relayed Tony 's reports on the leftist tendencies he observed among his fellow students and , more important , among his officers and instructors .
p471
sg12
Vwsj/20/wsj_2013.txt
p472
sg14
I36
sg15
(lp473
(Vrelay
p474
Vdep
p475
tp476
a(Vhe
p477
Vnsubj
p478
tp479
a(Vobserve
p480
g18
tp481
a(Vstudent
p482
Vposs
p483
tp484
a(g482
Vprep_among
p485
tp486
a(Vimportant
p487
Vprep_among
p488
tp489
asg26
V30.2
p490
sa(dp491
g4
g52
sg6
(VStatement
p492
Vobserve.02
p493
tp494
sg10
VMr. Mehta observed that the U.S. merchandise trade deficit , which rose sharply in August , according to yesterday 's report , has been having less and less impact on the gold market .
p495
sg12
Vwsj/20/wsj_2045.txt
p496
sg14
I23
sg15
(lp497
(V.
p498
Vroot
p499
tp500
a(VMr.
p501
Vnn
p502
tp503
a(VMehta
p504
Vnsubj
p505
tp506
a(Vobserve
p507
g18
tp508
a(Vhave
p509
Vccomp
p510
tp511
asg26
V29.5-2
p512
sa(dp513
g4
V48
p514
sg6
(VPerception_active
p515
Vobserve.01
p516
tp517
sg10
VOne might think that the home fans in this Series of the Subway Called BART ( that 's a better name for a public conveyance than `` Desire , '' do n't you think ? ) would have been ecstatic over the proceedings , but they observe them in relative calm .
p518
sg12
Vwsj/22/wsj_2202.txt
p519
sg14
I20
sg15
(lp520
(V-rrb-
p521
g18
tp522
asg26
V35.4
p523
sa(dp524
g4
V9
p525
sg6
(VStatement
p526
Vobserve.02
p527
tp528
sg10
VAs Sen. Lloyd Bentsen ( D. , Texas ) observed yesterday , `` The Fed avoided a meltdown last time .
p529
sg12
Vwsj/23/wsj_2397.txt
p530
sg14
I61
sg15
(lp531
(VBentsen
p532
Vpartmod
p533
tp534
a(Vobserve
p535
g18
tp536
a(Vyesterday
p537
Vtmod
p538
tp539
asg26
V37.7-1
p540
sas.